target datalayout = "e-m:e-p270:32:32-p271:32:32-p272:64:64-i64:64-i128:128-f80:128-n8:16:32:64-S128"
target triple = "x86_64-pc-linux-gnu"

; Function Attrs: nounwind uwtable
define hidden i64 @Curl_getdate_capped(ptr noundef %0) #0 {
  %2 = alloca i64, align 8
  %3 = alloca ptr, align 8
  %4 = alloca i64, align 8
  %5 = alloca i32, align 4
  %6 = alloca i32, align 4
  store ptr %0, ptr %3, align 8, !tbaa !3
  call void @llvm.lifetime.start.p0(i64 8, ptr %4) #6
  store i64 -1, ptr %4, align 8, !tbaa !10
  call void @llvm.lifetime.start.p0(i64 4, ptr %5) #6
  %7 = load ptr, ptr %3, align 8, !tbaa !3
  %8 = call i32 @parsedate(ptr noundef %7, ptr noundef %4)
  store i32 %8, ptr %5, align 4, !tbaa !12
  %9 = load i32, ptr %5, align 4, !tbaa !12
  switch i32 %9, label %20 [
    i32 0, label %10
    i32 1, label %18
  ]

10:                                               ; preds = %1
  %11 = load i64, ptr %4, align 8, !tbaa !10
  %12 = icmp eq i64 %11, -1
  br i1 %12, label %13, label %16

13:                                               ; preds = %10
  %14 = load i64, ptr %4, align 8, !tbaa !10
  %15 = add nsw i64 %14, 1
  store i64 %15, ptr %4, align 8, !tbaa !10
  br label %16

16:                                               ; preds = %13, %10
  %17 = load i64, ptr %4, align 8, !tbaa !10
  store i64 %17, ptr %2, align 8
  store i32 1, ptr %6, align 4
  br label %21

18:                                               ; preds = %1
  %19 = load i64, ptr %4, align 8, !tbaa !10
  store i64 %19, ptr %2, align 8
  store i32 1, ptr %6, align 4
  br label %21

20:                                               ; preds = %1
  store i64 -1, ptr %2, align 8
  store i32 1, ptr %6, align 4
  br label %21

21:                                               ; preds = %20, %18, %16
  call void @llvm.lifetime.end.p0(i64 4, ptr %5) #6
  call void @llvm.lifetime.end.p0(i64 8, ptr %4) #6
  %22 = load i64, ptr %2, align 8
  ret i64 %22
}