; Function Attrs: nounwind uwtable
define hidden i64 @Curl_getdate_capped(ptr noundef %0) local_unnamed_addr #0 {
  %2 = alloca i64, align 8
  call void @llvm.lifetime.start.p0(i64 8, ptr nonnull %2) #7
  store i64 -1, ptr %2, align 8, !tbaa !3
  %3 = call fastcc i32 @parsedate(ptr noundef %0, ptr noundef %2)
  %cond = icmp eq i32 %3, 0
  %4 = load i64, ptr %2, align 8
  %5 = icmp eq i64 %4, -1
  %spec.store.select = select i1 %5, i64 0, i64 %4
  %.0 = select i1 %cond, i64 %spec.store.select, i64 -1
  call void @llvm.lifetime.end.p0(i64 8, ptr nonnull %2) #7
  ret i64 %.0
}